; Function Attrs: mustprogress uwtable
define internal fastcc void @_ZN16ConstructorStats5valueIPN12_GLOBAL__N_19MyObject1EJEEEvRKT_DpOT0_(ptr noundef nonnull align 8 dereferenceable(100) %0, ptr nocapture noundef nonnull readonly align 8 dereferenceable(8) %1) unnamed_addr #1 align 2 personality ptr @__gxx_personality_v0 {
  %3 = alloca %"class.std::__cxx11::basic_ostringstream", align 8
  %4 = alloca %"class.std::__cxx11::basic_string", align 8
  call void @_ZNSt7__cxx1119basic_ostringstreamIcSt11char_traitsIcESaIcEEC1Ev(ptr noundef nonnull align 8 dereferenceable(112) %3)
  %5 = load ptr, ptr %1, align 8
  %6 = invoke noundef nonnull align 8 dereferenceable(8) ptr @_ZNSolsEPKv(ptr noundef nonnull align 8 dereferenceable(8) %3, ptr noundef %5)
          to label %7 unwind label %16

7:                                                ; preds = %2
  invoke void @_ZNKSt7__cxx1119basic_ostringstreamIcSt11char_traitsIcESaIcEE3strEv(ptr dead_on_unwind nonnull writable sret(%"class.std::__cxx11::basic_string") align 8 %4, ptr noundef nonnull align 8 dereferenceable(112) %3)
          to label %8 unwind label %16

8:                                                ; preds = %7
  %9 = invoke noalias noundef nonnull dereferenceable(48) ptr @_Znwm(i64 noundef 48) #32
          to label %10 unwind label %18

10:                                               ; preds = %8
  %11 = getelementptr inbounds i8, ptr %0, i64 56
  %12 = getelementptr inbounds i8, ptr %9, i64 16
  call void @_ZNSt7__cxx1112basic_stringIcSt11char_traitsIcESaIcEEC1EOS4_(ptr noundef nonnull align 8 dereferenceable(32) %12, ptr noundef nonnull align 8 dereferenceable(32) %4) #28
  call void @_ZNSt8__detail15_List_node_base7_M_hookEPS0_(ptr noundef nonnull align 8 dereferenceable(16) %9, ptr noundef nonnull %11) #28
  %13 = getelementptr inbounds i8, ptr %0, i64 72
  %14 = load i64, ptr %13, align 8
  %15 = add i64 %14, 1
  store i64 %15, ptr %13, align 8
  call void @_ZNSt7__cxx1112basic_stringIcSt11char_traitsIcESaIcEED1Ev(ptr noundef nonnull align 8 dereferenceable(32) %4) #28
  call void @_ZNSt7__cxx1119basic_ostringstreamIcSt11char_traitsIcESaIcEED1Ev(ptr noundef nonnull align 8 dereferenceable(112) %3) #28
  ret void

16:                                               ; preds = %7, %2
  %17 = landingpad { ptr, i32 }
          cleanup
  br label %20

18:                                               ; preds = %8
  %19 = landingpad { ptr, i32 }
          cleanup
  call void @_ZNSt7__cxx1112basic_stringIcSt11char_traitsIcESaIcEED1Ev(ptr noundef nonnull align 8 dereferenceable(32) %4) #28
  br label %20

20:                                               ; preds = %18, %16
  %.pn = phi { ptr, i32 } [ %19, %18 ], [ %17, %16 ]
  call void @_ZNSt7__cxx1119basic_ostringstreamIcSt11char_traitsIcESaIcEED1Ev(ptr noundef nonnull align 8 dereferenceable(112) %3) #28
  resume { ptr, i32 } %.pn
}